target datalayout = "e-m:e-p270:32:32-p271:32:32-p272:64:64-i64:64-i128:128-f80:128-n8:16:32:64-S128"
target triple = "x86_64-pc-linux-gnu"

%"struct.vcpkg::StringView" = type { ptr, i64 }
%"struct.vcpkg::LocalizedString" = type { %"class.std::__cxx11::basic_string" }
%"class.std::__cxx11::basic_string" = type { %"struct.std::__cxx11::basic_string<char>::_Alloc_hider", i64, %union.anon }
%"struct.std::__cxx11::basic_string<char>::_Alloc_hider" = type { ptr }
%union.anon = type { i64, [8 x i8] }
%"struct.vcpkg::Path" = type { %"class.std::__cxx11::basic_string" }
%"struct.vcpkg::Command" = type { %"class.std::__cxx11::basic_string" }
%"struct.vcpkg::ExpectedT.154" = type <{ %union.anon.155, i8, [7 x i8] }>
%union.anon.155 = type { %"struct.vcpkg::LocalizedString" }
%"struct.(anonymous namespace)::GcsStorageTool" = type { %"struct.(anonymous namespace)::IObjectStorageTool", %"struct.vcpkg::Path" }
%"struct.(anonymous namespace)::IObjectStorageTool" = type { ptr }
%"struct.vcpkg::ExpectedT.450" = type <{ %union.anon.451, i8, [7 x i8] }>
%union.anon.451 = type { %"struct.vcpkg::ExpectedHolder.452" }
%"struct.vcpkg::ExpectedHolder.452" = type { %"struct.vcpkg::ExitCodeAndOutput" }
%"struct.vcpkg::ExitCodeAndOutput" = type { i32, %"class.std::__cxx11::basic_string" }

@_ZN5vcpkg5ToolsL6GSUTILE = internal constant { ptr, i64 } { ptr @.str.81, i64 6 }, align 8
@.str.103 = private unnamed_addr constant [3 x i8] c"-q\00", align 1
@.str.104 = private unnamed_addr constant [5 x i8] c"stat\00", align 1

; Function Attrs: mustprogress nounwind uwtable
define linkonce_odr dso_local void @_ZN5vcpkg17ExitCodeAndOutputD2Ev(ptr noundef nonnull align 8 dereferenceable(40) %0) unnamed_addr #1 comdat align 2 {
  %2 = alloca ptr, align 8
  store ptr %0, ptr %2, align 8
  %3 = load ptr, ptr %2, align 8
  %4 = getelementptr inbounds %"struct.vcpkg::ExitCodeAndOutput", ptr %3, i32 0, i32 1
  call void @_ZNSt7__cxx1112basic_stringIcSt11char_traitsIcESaIcEED1Ev(ptr noundef nonnull align 8 dereferenceable(32) %4) #8
  ret void
}

; Function Attrs: mustprogress nounwind uwtable
define linkonce_odr dso_local void @_ZN5vcpkg14ExpectedHolderINS_17ExitCodeAndOutputEED2Ev(ptr noundef nonnull align 8 dereferenceable(40) %0) unnamed_addr #1 comdat align 2 {
  %2 = alloca ptr, align 8
  store ptr %0, ptr %2, align 8
  %3 = load ptr, ptr %2, align 8
  %4 = getelementptr inbounds %"struct.vcpkg::ExpectedHolder.452", ptr %3, i32 0, i32 0
  call void @_ZN5vcpkg17ExitCodeAndOutputD2Ev(ptr noundef nonnull align 8 dereferenceable(40) %4) #8
  ret void
}

; Function Attrs: mustprogress nounwind uwtable
define linkonce_odr dso_local void @_ZN5vcpkg15LocalizedStringD2Ev(ptr noundef nonnull align 8 dereferenceable(32) %0) unnamed_addr #1 comdat align 2 {
  %2 = alloca ptr, align 8
  store ptr %0, ptr %2, align 8
  %3 = load ptr, ptr %2, align 8
  %4 = getelementptr inbounds %"struct.vcpkg::LocalizedString", ptr %3, i32 0, i32 0
  call void @_ZNSt7__cxx1112basic_stringIcSt11char_traitsIcESaIcEED1Ev(ptr noundef nonnull align 8 dereferenceable(32) %4) #8
  ret void
}

; Function Attrs: mustprogress nounwind uwtable
define linkonce_odr dso_local void @_ZN5vcpkg7CommandD2Ev(ptr noundef nonnull align 8 dereferenceable(32) %0) unnamed_addr #1 comdat align 2 {
  %2 = alloca ptr, align 8
  store ptr %0, ptr %2, align 8
  %3 = load ptr, ptr %2, align 8
  %4 = getelementptr inbounds %"struct.vcpkg::Command", ptr %3, i32 0, i32 0
  call void @_ZNSt7__cxx1112basic_stringIcSt11char_traitsIcESaIcEED1Ev(ptr noundef nonnull align 8 dereferenceable(32) %4) #8
  ret void
}

; Function Attrs: mustprogress nounwind uwtable
define linkonce_odr dso_local void @_ZN5vcpkg9ExpectedTINS_17ExitCodeAndOutputENS_15LocalizedStringEED2Ev(ptr noundef nonnull align 8 dereferenceable(41) %0) unnamed_addr #1 comdat align 2 {
  %2 = alloca ptr, align 8
  store ptr %0, ptr %2, align 8
  %3 = load ptr, ptr %2, align 8
  %4 = getelementptr inbounds %"struct.vcpkg::ExpectedT.450", ptr %3, i32 0, i32 1
  %5 = load i8, ptr %4, align 8
  %6 = trunc i8 %5 to i1
  br i1 %6, label %7, label %9

7:                                                ; preds = %1
  %8 = getelementptr inbounds %"struct.vcpkg::ExpectedT.450", ptr %3, i32 0, i32 0
  call void @_ZN5vcpkg15LocalizedStringD2Ev(ptr noundef nonnull align 8 dereferenceable(32) %8) #8
  br label %11

9:                                                ; preds = %1
  %10 = getelementptr inbounds %"struct.vcpkg::ExpectedT.450", ptr %3, i32 0, i32 0
  call void @_ZN5vcpkg14ExpectedHolderINS_17ExitCodeAndOutputEED2Ev(ptr noundef nonnull align 8 dereferenceable(40) %10) #8
  br label %11

11:                                               ; preds = %9, %7
  ret void
}

; Function Attrs: mustprogress uwtable
define linkonce_odr dso_local noundef nonnull align 8 dereferenceable(32) ptr @_ZNO5vcpkg7Command10string_argENS_10StringViewE(ptr noundef nonnull align 8 dereferenceable(32) %0, ptr %1, i64 %2) #0 comdat align 2 {
  %4 = alloca %"struct.vcpkg::StringView", align 8
  %5 = alloca ptr, align 8
  %6 = alloca %"struct.vcpkg::StringView", align 8
  %7 = getelementptr inbounds { ptr, i64 }, ptr %4, i32 0, i32 0
  store ptr %1, ptr %7, align 8
  %8 = getelementptr inbounds { ptr, i64 }, ptr %4, i32 0, i32 1
  store i64 %2, ptr %8, align 8
  store ptr %0, ptr %5, align 8
  %9 = load ptr, ptr %5, align 8
  call void @llvm.memcpy.p0.p0.i64(ptr align 8 %6, ptr align 8 %4, i64 16, i1 false)
  %10 = getelementptr inbounds { ptr, i64 }, ptr %6, i32 0, i32 0
  %11 = load ptr, ptr %10, align 8
  %12 = getelementptr inbounds { ptr, i64 }, ptr %6, i32 0, i32 1
  %13 = load i64, ptr %12, align 8
  %14 = call noundef nonnull align 8 dereferenceable(32) ptr @_ZNR5vcpkg7Command10string_argENS_10StringViewE(ptr noundef nonnull align 8 dereferenceable(32) %9, ptr %11, i64 %13)
  ret ptr %14
}

; Function Attrs: mustprogress nounwind uwtable
define linkonce_odr dso_local void @_ZN5vcpkg10StringViewC2EPKc(ptr noundef nonnull align 8 dereferenceable(16) %0, ptr noundef %1) unnamed_addr #1 comdat align 2 {
  %3 = alloca ptr, align 8
  %4 = alloca ptr, align 8
  store ptr %0, ptr %3, align 8
  store ptr %1, ptr %4, align 8
  %5 = load ptr, ptr %3, align 8
  %6 = getelementptr inbounds %"struct.vcpkg::StringView", ptr %5, i32 0, i32 0
  %7 = load ptr, ptr %4, align 8
  store ptr %7, ptr %6, align 8
  %8 = getelementptr inbounds %"struct.vcpkg::StringView", ptr %5, i32 0, i32 1
  %9 = load ptr, ptr %4, align 8
  %10 = call i64 @strlen(ptr noundef %9) #19
  store i64 %10, ptr %8, align 8
  ret void
}

; Function Attrs: mustprogress uwtable
define linkonce_odr dso_local void @_ZN5vcpkg7CommandC2ENS_10StringViewE(ptr noundef nonnull align 8 dereferenceable(32) %0, ptr %1, i64 %2) unnamed_addr #0 comdat align 2 personality ptr @__gxx_personality_v0 {
  %4 = alloca %"struct.vcpkg::StringView", align 8
  %5 = alloca ptr, align 8
  %6 = alloca %"struct.vcpkg::StringView", align 8
  %7 = alloca ptr, align 8
  %8 = alloca i32, align 4
  %9 = getelementptr inbounds { ptr, i64 }, ptr %4, i32 0, i32 0
  store ptr %1, ptr %9, align 8
  %10 = getelementptr inbounds { ptr, i64 }, ptr %4, i32 0, i32 1
  store i64 %2, ptr %10, align 8
  store ptr %0, ptr %5, align 8
  %11 = load ptr, ptr %5, align 8
  %12 = getelementptr inbounds %"struct.vcpkg::Command", ptr %11, i32 0, i32 0
  call void @_ZNSt7__cxx1112basic_stringIcSt11char_traitsIcESaIcEEC1Ev(ptr noundef nonnull align 8 dereferenceable(32) %12) #8
  call void @llvm.memcpy.p0.p0.i64(ptr align 8 %6, ptr align 8 %4, i64 16, i1 false)
  %13 = getelementptr inbounds { ptr, i64 }, ptr %6, i32 0, i32 0
  %14 = load ptr, ptr %13, align 8
  %15 = getelementptr inbounds { ptr, i64 }, ptr %6, i32 0, i32 1
  %16 = load i64, ptr %15, align 8
  %17 = invoke noundef nonnull align 8 dereferenceable(32) ptr @_ZNR5vcpkg7Command10string_argENS_10StringViewE(ptr noundef nonnull align 8 dereferenceable(32) %11, ptr %14, i64 %16)
          to label %18 unwind label %19

18:                                               ; preds = %3
  ret void

19:                                               ; preds = %3
  %20 = landingpad { ptr, i32 }
          cleanup
  %21 = extractvalue { ptr, i32 } %20, 0
  store ptr %21, ptr %7, align 8
  %22 = extractvalue { ptr, i32 } %20, 1
  store i32 %22, ptr %8, align 4
  call void @_ZNSt7__cxx1112basic_stringIcSt11char_traitsIcESaIcEED1Ev(ptr noundef nonnull align 8 dereferenceable(32) %12) #8
  br label %23

23:                                               ; preds = %19
  %24 = load ptr, ptr %7, align 8
  %25 = load i32, ptr %8, align 4
  %26 = insertvalue { ptr, i32 } poison, ptr %24, 0
  %27 = insertvalue { ptr, i32 } %26, i32 %25, 1
  resume { ptr, i32 } %27
}

; Function Attrs: mustprogress uwtable
define internal void @_ZNK12_GLOBAL__N_114GcsStorageTool4statEN5vcpkg10StringViewE(ptr dead_on_unwind noalias writable sret(%"struct.vcpkg::ExpectedT.154") align 8 %0, ptr noundef nonnull align 8 dereferenceable(40) %1, ptr %2, i64 %3) unnamed_addr #0 align 2 personality ptr @__gxx_personality_v0 {
  %5 = alloca ptr, align 8
  %6 = alloca %"struct.vcpkg::StringView", align 8
  %7 = alloca ptr, align 8
  %8 = alloca %"struct.vcpkg::ExpectedT.450", align 8
  %9 = alloca %"struct.vcpkg::Command", align 8
  %10 = alloca %"struct.vcpkg::StringView", align 8
  %11 = alloca %"struct.vcpkg::StringView", align 8
  %12 = alloca ptr, align 8
  %13 = alloca i32, align 4
  %14 = alloca %"struct.vcpkg::StringView", align 8
  %15 = alloca %"struct.vcpkg::StringView", align 8
  %16 = alloca %"struct.vcpkg::StringView", align 8
  store ptr %0, ptr %5, align 8
  %17 = getelementptr inbounds { ptr, i64 }, ptr %6, i32 0, i32 0
  store ptr %2, ptr %17, align 8
  %18 = getelementptr inbounds { ptr, i64 }, ptr %6, i32 0, i32 1
  store i64 %3, ptr %18, align 8
  store ptr %1, ptr %7, align 8
  %19 = load ptr, ptr %7, align 8
  %20 = getelementptr inbounds %"struct.(anonymous namespace)::GcsStorageTool", ptr %19, i32 0, i32 1
  %21 = call { ptr, i64 } @_ZNK5vcpkg4PathcvNS_10StringViewEEv(ptr noundef nonnull align 8 dereferenceable(32) %20) #8
  %22 = getelementptr inbounds { ptr, i64 }, ptr %10, i32 0, i32 0
  %23 = extractvalue { ptr, i64 } %21, 0
  store ptr %23, ptr %22, align 8
  %24 = getelementptr inbounds { ptr, i64 }, ptr %10, i32 0, i32 1
  %25 = extractvalue { ptr, i64 } %21, 1
  store i64 %25, ptr %24, align 8
  %26 = getelementptr inbounds { ptr, i64 }, ptr %10, i32 0, i32 0
  %27 = load ptr, ptr %26, align 8
  %28 = getelementptr inbounds { ptr, i64 }, ptr %10, i32 0, i32 1
  %29 = load i64, ptr %28, align 8
  call void @_ZN5vcpkg7CommandC2ENS_10StringViewE(ptr noundef nonnull align 8 dereferenceable(32) %9, ptr %27, i64 %29)
  call void @_ZN5vcpkg10StringViewC2EPKc(ptr noundef nonnull align 8 dereferenceable(16) %11, ptr noundef @.str.103) #8
  %30 = getelementptr inbounds { ptr, i64 }, ptr %11, i32 0, i32 0
  %31 = load ptr, ptr %30, align 8
  %32 = getelementptr inbounds { ptr, i64 }, ptr %11, i32 0, i32 1
  %33 = load i64, ptr %32, align 8
  %34 = invoke noundef nonnull align 8 dereferenceable(32) ptr @_ZNO5vcpkg7Command10string_argENS_10StringViewE(ptr noundef nonnull align 8 dereferenceable(32) %9, ptr %31, i64 %33)
          to label %35 unwind label %54

35:                                               ; preds = %4
  call void @_ZN5vcpkg10StringViewC2EPKc(ptr noundef nonnull align 8 dereferenceable(16) %14, ptr noundef @.str.104) #8
  %36 = getelementptr inbounds { ptr, i64 }, ptr %14, i32 0, i32 0
  %37 = load ptr, ptr %36, align 8
  %38 = getelementptr inbounds { ptr, i64 }, ptr %14, i32 0, i32 1
  %39 = load i64, ptr %38, align 8
  %40 = invoke noundef nonnull align 8 dereferenceable(32) ptr @_ZNO5vcpkg7Command10string_argENS_10StringViewE(ptr noundef nonnull align 8 dereferenceable(32) %34, ptr %37, i64 %39)
          to label %41 unwind label %54

41:                                               ; preds = %35
  call void @llvm.memcpy.p0.p0.i64(ptr align 8 %15, ptr align 8 %6, i64 16, i1 false)
  %42 = getelementptr inbounds { ptr, i64 }, ptr %15, i32 0, i32 0
  %43 = load ptr, ptr %42, align 8
  %44 = getelementptr inbounds { ptr, i64 }, ptr %15, i32 0, i32 1
  %45 = load i64, ptr %44, align 8
  %46 = invoke noundef nonnull align 8 dereferenceable(32) ptr @_ZNO5vcpkg7Command10string_argENS_10StringViewE(ptr noundef nonnull align 8 dereferenceable(32) %40, ptr %43, i64 %45)
          to label %47 unwind label %54

47:                                               ; preds = %41
  invoke void @_ZN5vcpkg30cmd_execute_and_capture_outputERKNS_7CommandE(ptr dead_on_unwind writable sret(%"struct.vcpkg::ExpectedT.450") align 8 %8, ptr noundef nonnull align 8 dereferenceable(32) %46)
          to label %48 unwind label %54

48:                                               ; preds = %47
  call void @llvm.memcpy.p0.p0.i64(ptr align 8 %16, ptr align 8 @_ZN5vcpkg5ToolsL6GSUTILE, i64 16, i1 false)
  %49 = getelementptr inbounds { ptr, i64 }, ptr %16, i32 0, i32 0
  %50 = load ptr, ptr %49, align 8
  %51 = getelementptr inbounds { ptr, i64 }, ptr %16, i32 0, i32 1
  %52 = load i64, ptr %51, align 8
  invoke void @_ZN5vcpkg7flattenERKNS_9ExpectedTINS_17ExitCodeAndOutputENS_15LocalizedStringEEENS_10StringViewE(ptr dead_on_unwind writable sret(%"struct.vcpkg::ExpectedT.154") align 8 %0, ptr noundef nonnull align 8 dereferenceable(41) %8, ptr %50, i64 %52)
          to label %53 unwind label %58

53:                                               ; preds = %48
  call void @_ZN5vcpkg9ExpectedTINS_17ExitCodeAndOutputENS_15LocalizedStringEED2Ev(ptr noundef nonnull align 8 dereferenceable(41) %8) #8
  call void @_ZN5vcpkg7CommandD2Ev(ptr noundef nonnull align 8 dereferenceable(32) %9) #8
  ret void

54:                                               ; preds = %47, %41, %35, %4
  %55 = landingpad { ptr, i32 }
          cleanup
  %56 = extractvalue { ptr, i32 } %55, 0
  store ptr %56, ptr %12, align 8
  %57 = extractvalue { ptr, i32 } %55, 1
  store i32 %57, ptr %13, align 4
  br label %62

58:                                               ; preds = %48
  %59 = landingpad { ptr, i32 }
          cleanup
  %60 = extractvalue { ptr, i32 } %59, 0
  store ptr %60, ptr %12, align 8
  %61 = extractvalue { ptr, i32 } %59, 1
  store i32 %61, ptr %13, align 4
  call void @_ZN5vcpkg9ExpectedTINS_17ExitCodeAndOutputENS_15LocalizedStringEED2Ev(ptr noundef nonnull align 8 dereferenceable(41) %8) #8
  br label %62

62:                                               ; preds = %58, %54
  call void @_ZN5vcpkg7CommandD2Ev(ptr noundef nonnull align 8 dereferenceable(32) %9) #8
  br label %63

63:                                               ; preds = %62
  %64 = load ptr, ptr %12, align 8
  %65 = load i32, ptr %13, align 4
  %66 = insertvalue { ptr, i32 } poison, ptr %64, 0
  %67 = insertvalue { ptr, i32 } %66, i32 %65, 1
  resume { ptr, i32 } %67
}