; Function Attrs: mustprogress uwtable
define internal void @_ZNK12_GLOBAL__N_114GcsStorageTool4statEN5vcpkg10StringViewE(ptr dead_on_unwind noalias writable sret(%"struct.vcpkg::ExpectedT.154") align 8 %0, ptr noundef nonnull align 8 dereferenceable(40) %1, ptr %2, i64 %3) unnamed_addr #0 align 2 personality ptr @__gxx_personality_v0 {
  %5 = alloca %"struct.vcpkg::ExpectedT.450", align 8
  %6 = alloca %"struct.vcpkg::Command", align 8
  %7 = getelementptr inbounds i8, ptr %1, i64 8
  %8 = tail call { ptr, i64 } @_ZNK5vcpkg4PathcvNS_10StringViewEEv(ptr noundef nonnull align 8 dereferenceable(32) %7) #24
  %9 = extractvalue { ptr, i64 } %8, 0
  %10 = extractvalue { ptr, i64 } %8, 1
  call void @_ZNSt7__cxx1112basic_stringIcSt11char_traitsIcESaIcEEC1Ev(ptr noundef nonnull align 8 dereferenceable(32) %6) #24
  %11 = invoke noundef nonnull align 8 dereferenceable(32) ptr @_ZNR5vcpkg7Command10string_argENS_10StringViewE(ptr noundef nonnull align 8 dereferenceable(32) %6, ptr %9, i64 %10)
          to label %_ZN5vcpkg7CommandC2ENS_10StringViewE.exit unwind label %12

common.resume:                                    ; preds = %24, %26, %12
  %common.resume.op = phi { ptr, i32 } [ %13, %12 ], [ %27, %26 ], [ %25, %24 ]
  call void @_ZNSt7__cxx1112basic_stringIcSt11char_traitsIcESaIcEED1Ev(ptr noundef nonnull align 8 dereferenceable(32) %6) #24
  resume { ptr, i32 } %common.resume.op

12:                                               ; preds = %4
  %13 = landingpad { ptr, i32 }
          cleanup
  br label %common.resume

_ZN5vcpkg7CommandC2ENS_10StringViewE.exit:        ; preds = %4
  %14 = invoke noundef nonnull align 8 dereferenceable(32) ptr @_ZNR5vcpkg7Command10string_argENS_10StringViewE(ptr noundef nonnull align 8 dereferenceable(32) %6, ptr nonnull @.str.103, i64 2)
          to label %_ZNO5vcpkg7Command10string_argENS_10StringViewE.exit unwind label %24

_ZNO5vcpkg7Command10string_argENS_10StringViewE.exit: ; preds = %_ZN5vcpkg7CommandC2ENS_10StringViewE.exit
  %15 = invoke noundef nonnull align 8 dereferenceable(32) ptr @_ZNR5vcpkg7Command10string_argENS_10StringViewE(ptr noundef nonnull align 8 dereferenceable(32) %14, ptr nonnull @.str.104, i64 4)
          to label %_ZNO5vcpkg7Command10string_argENS_10StringViewE.exit10 unwind label %24

_ZNO5vcpkg7Command10string_argENS_10StringViewE.exit10: ; preds = %_ZNO5vcpkg7Command10string_argENS_10StringViewE.exit
  %16 = invoke noundef nonnull align 8 dereferenceable(32) ptr @_ZNR5vcpkg7Command10string_argENS_10StringViewE(ptr noundef nonnull align 8 dereferenceable(32) %15, ptr %2, i64 %3)
          to label %_ZNO5vcpkg7Command10string_argENS_10StringViewE.exit11 unwind label %24

_ZNO5vcpkg7Command10string_argENS_10StringViewE.exit11: ; preds = %_ZNO5vcpkg7Command10string_argENS_10StringViewE.exit10
  invoke void @_ZN5vcpkg30cmd_execute_and_capture_outputERKNS_7CommandE(ptr dead_on_unwind nonnull writable sret(%"struct.vcpkg::ExpectedT.450") align 8 %5, ptr noundef nonnull align 8 dereferenceable(32) %16)
          to label %17 unwind label %24

17:                                               ; preds = %_ZNO5vcpkg7Command10string_argENS_10StringViewE.exit11
  invoke void @_ZN5vcpkg7flattenERKNS_9ExpectedTINS_17ExitCodeAndOutputENS_15LocalizedStringEEENS_10StringViewE(ptr dead_on_unwind writable sret(%"struct.vcpkg::ExpectedT.154") align 8 %0, ptr noundef nonnull align 8 dereferenceable(41) %5, ptr nonnull @.str.81, i64 6)
          to label %18 unwind label %26

18:                                               ; preds = %17
  %19 = getelementptr inbounds i8, ptr %5, i64 40
  %20 = load i8, ptr %19, align 8
  %21 = shl i8 %20, 3
  %22 = and i8 %21, 8
  %23 = xor i8 %22, 8
  %.sink.idx.i = zext nneg i8 %23 to i64
  %.sink.i = getelementptr inbounds i8, ptr %5, i64 %.sink.idx.i
  call void @_ZNSt7__cxx1112basic_stringIcSt11char_traitsIcESaIcEED1Ev(ptr noundef nonnull align 8 dereferenceable(32) %.sink.i) #24
  call void @_ZNSt7__cxx1112basic_stringIcSt11char_traitsIcESaIcEED1Ev(ptr noundef nonnull align 8 dereferenceable(32) %6) #24
  ret void

24:                                               ; preds = %_ZNO5vcpkg7Command10string_argENS_10StringViewE.exit10, %_ZNO5vcpkg7Command10string_argENS_10StringViewE.exit, %_ZN5vcpkg7CommandC2ENS_10StringViewE.exit, %_ZNO5vcpkg7Command10string_argENS_10StringViewE.exit11
  %25 = landingpad { ptr, i32 }
          cleanup
  br label %common.resume

26:                                               ; preds = %17
  %27 = landingpad { ptr, i32 }
          cleanup
  %28 = getelementptr inbounds i8, ptr %5, i64 40
  %29 = load i8, ptr %28, align 8
  %30 = shl i8 %29, 3
  %31 = and i8 %30, 8
  %32 = xor i8 %31, 8
  %.sink.idx.i12 = zext nneg i8 %32 to i64
  %.sink.i13 = getelementptr inbounds i8, ptr %5, i64 %.sink.idx.i12
  call void @_ZNSt7__cxx1112basic_stringIcSt11char_traitsIcESaIcEED1Ev(ptr noundef nonnull align 8 dereferenceable(32) %.sink.i13) #24
  br label %common.resume
}